target datalayout = "e-m:e-p270:32:32-p271:32:32-p272:64:64-i64:64-i128:128-f80:128-n8:16:32:64-S128"
target triple = "x86_64-unknown-linux-gnu"

%"class.google::protobuf::io::GzipInputStream" = type { %"class.google::protobuf::io::ZeroCopyInputStream", i32, ptr, %struct.z_stream_s, i32, ptr, ptr, i64, i64 }
%"class.google::protobuf::io::ZeroCopyInputStream" = type { ptr }
%struct.z_stream_s = type { ptr, i32, i64, ptr, i32, i64, ptr, ptr, ptr, ptr, ptr, i32, i64, i64 }

; Function Attrs: mustprogress nounwind uwtable
define void @_ZN6google8protobuf2io15GzipInputStream12DoNextOutputEPPKvPi(ptr noundef nonnull align 8 dereferenceable(176) %this, ptr noundef %data, ptr noundef %size) #5 align 2 {
entry:
  %this.addr = alloca ptr, align 8
  %data.addr = alloca ptr, align 8
  %size.addr = alloca ptr, align 8
  store ptr %this, ptr %this.addr, align 8
  store ptr %data, ptr %data.addr, align 8
  store ptr %size, ptr %size.addr, align 8
  %this1 = load ptr, ptr %this.addr, align 8
  %output_position_ = getelementptr inbounds %"class.google::protobuf::io::GzipInputStream", ptr %this1, i32 0, i32 6
  %0 = load ptr, ptr %output_position_, align 8
  %1 = load ptr, ptr %data.addr, align 8
  store ptr %0, ptr %1, align 8
  %zcontext_ = getelementptr inbounds %"class.google::protobuf::io::GzipInputStream", ptr %this1, i32 0, i32 3
  %next_out = getelementptr inbounds %struct.z_stream_s, ptr %zcontext_, i32 0, i32 3
  %2 = load ptr, ptr %next_out, align 8
  %3 = ptrtoint ptr %2 to i64
  %output_position_2 = getelementptr inbounds %"class.google::protobuf::io::GzipInputStream", ptr %this1, i32 0, i32 6
  %4 = load ptr, ptr %output_position_2, align 8
  %5 = ptrtoint ptr %4 to i64
  %sub = sub i64 %3, %5
  %conv = trunc i64 %sub to i32
  %6 = load ptr, ptr %size.addr, align 8
  store i32 %conv, ptr %6, align 4
  %zcontext_3 = getelementptr inbounds %"class.google::protobuf::io::GzipInputStream", ptr %this1, i32 0, i32 3
  %next_out4 = getelementptr inbounds %struct.z_stream_s, ptr %zcontext_3, i32 0, i32 3
  %7 = load ptr, ptr %next_out4, align 8
  %output_position_5 = getelementptr inbounds %"class.google::protobuf::io::GzipInputStream", ptr %this1, i32 0, i32 6
  store ptr %7, ptr %output_position_5, align 8
  ret void
}