; Function Attrs: mustprogress nofree norecurse nosync nounwind willreturn memory(argmem: readwrite) uwtable
define void @_ZN6google8protobuf2io15GzipInputStream12DoNextOutputEPPKvPi(ptr nocapture noundef nonnull align 8 dereferenceable(176) %this, ptr nocapture noundef writeonly %data, ptr nocapture noundef writeonly %size) local_unnamed_addr #10 align 2 {
entry:
  %output_position_ = getelementptr inbounds i8, ptr %this, i64 152
  %0 = load ptr, ptr %output_position_, align 8
  store ptr %0, ptr %data, align 8
  %next_out = getelementptr inbounds i8, ptr %this, i64 48
  %1 = load ptr, ptr %next_out, align 8
  %2 = ptrtoint ptr %1 to i64
  %3 = ptrtoint ptr %0 to i64
  %sub = sub i64 %2, %3
  %conv = trunc i64 %sub to i32
  store i32 %conv, ptr %size, align 4
  %4 = load ptr, ptr %next_out, align 8
  store ptr %4, ptr %output_position_, align 8
  ret void
}